target datalayout = "e-m:e-p270:32:32-p271:32:32-p272:64:64-i64:64-i128:128-f80:128-n8:16:32:64-S128"
target triple = "x86_64-pc-linux-gnu"

%"class.lean::expr" = type { %"class.lean::object_ref" }
%"class.lean::object_ref" = type { ptr }
%"class.lean::name" = type { %"class.lean::object_ref" }
%"class.lean::list_ref.61" = type { %"class.lean::object_ref" }

@_ZN4leanL7g_resetE = internal global ptr null, align 8

; Function Attrs: inlinehint mustprogress nounwind uwtable
define internal noundef ptr @_ZL8lean_boxm(i64 noundef %0) #6 {
  %2 = alloca i64, align 8
  store i64 %0, ptr %2, align 8, !tbaa !154
  %3 = load i64, ptr %2, align 8, !tbaa !154
  %4 = shl i64 %3, 1
  %5 = or i64 %4, 1
  %6 = inttoptr i64 %5 to ptr
  ret ptr %6
}

; Function Attrs: mustprogress nounwind uwtable
define linkonce_odr hidden void @_ZN4lean10object_refC2EP11lean_object(ptr noundef nonnull align 8 dereferenceable(8) %0, ptr noundef %1) unnamed_addr #4 comdat align 2 {
  %3 = alloca ptr, align 8
  %4 = alloca ptr, align 8
  store ptr %0, ptr %3, align 8, !tbaa !147
  store ptr %1, ptr %4, align 8, !tbaa !146
  %5 = load ptr, ptr %3, align 8
  %6 = getelementptr inbounds nuw %"class.lean::object_ref", ptr %5, i32 0, i32 0
  %7 = load ptr, ptr %4, align 8, !tbaa !146
  store ptr %7, ptr %6, align 8, !tbaa !149
  ret void
}

; Function Attrs: inlinehint mustprogress uwtable
define linkonce_odr hidden noundef ptr @_ZN4lean3boxEm(i64 noundef %0) #1 comdat {
  %2 = alloca i64, align 8
  store i64 %0, ptr %2, align 8, !tbaa !154
  %3 = load i64, ptr %2, align 8, !tbaa !154
  %4 = call noundef ptr @_ZL8lean_boxm(i64 noundef %3)
  ret ptr %4
}

; Function Attrs: inlinehint mustprogress uwtable
define linkonce_odr hidden void @_ZN4lean11mk_constantERKNS_4nameERKNS_8list_refINS_5levelEEE(ptr dead_on_unwind noalias writable sret(%"class.lean::expr") align 8 %0, ptr noundef nonnull align 8 dereferenceable(8) %1, ptr noundef nonnull align 8 dereferenceable(8) %2) #1 comdat {
  %4 = alloca ptr, align 8
  %5 = alloca ptr, align 8
  %6 = alloca ptr, align 8
  store ptr %0, ptr %4, align 8
  store ptr %1, ptr %5, align 8, !tbaa !8
  store ptr %2, ptr %6, align 8, !tbaa !152
  %7 = load ptr, ptr %5, align 8, !tbaa !8
  %8 = load ptr, ptr %6, align 8, !tbaa !152
  call void @_ZN4lean8mk_constERKNS_4nameERKNS_8list_refINS_5levelEEE(ptr dead_on_unwind writable sret(%"class.lean::expr") align 8 %0, ptr noundef nonnull align 8 dereferenceable(8) %7, ptr noundef nonnull align 8 dereferenceable(8) %8)
  ret void
}

; Function Attrs: mustprogress uwtable
define linkonce_odr hidden void @_ZN4lean8list_refINS_5levelEEC2Ev(ptr noundef nonnull align 8 dereferenceable(8) %0) unnamed_addr #0 comdat align 2 {
  %2 = alloca ptr, align 8
  store ptr %0, ptr %2, align 8, !tbaa !152
  %3 = load ptr, ptr %2, align 8
  %4 = call noundef ptr @_ZN4lean3boxEm(i64 noundef 0)
  call void @_ZN4lean10object_refC2EP11lean_object(ptr noundef nonnull align 8 dereferenceable(8) %3, ptr noundef %4)
  ret void
}

; Function Attrs: inlinehint mustprogress uwtable
define linkonce_odr hidden void @_ZN4lean11mk_constantERKNS_4nameE(ptr dead_on_unwind noalias writable sret(%"class.lean::expr") align 8 %0, ptr noundef nonnull align 8 dereferenceable(8) %1) #1 comdat personality ptr @__gxx_personality_v0 {
  %3 = alloca ptr, align 8
  %4 = alloca ptr, align 8
  %5 = alloca %"class.lean::list_ref.61", align 8
  %6 = alloca ptr, align 8
  %7 = alloca i32, align 4
  store ptr %0, ptr %3, align 8
  store ptr %1, ptr %4, align 8, !tbaa !8
  %8 = load ptr, ptr %4, align 8, !tbaa !8
  call void @llvm.lifetime.start.p0(i64 8, ptr %5) #16
  call void @_ZN4lean8list_refINS_5levelEEC2Ev(ptr noundef nonnull align 8 dereferenceable(8) %5)
  invoke void @_ZN4lean11mk_constantERKNS_4nameERKNS_8list_refINS_5levelEEE(ptr dead_on_unwind writable sret(%"class.lean::expr") align 8 %0, ptr noundef nonnull align 8 dereferenceable(8) %8, ptr noundef nonnull align 8 dereferenceable(8) %5)
          to label %9 unwind label %10

9:                                                ; preds = %2
  call void @_ZN4lean10object_refD2Ev(ptr noundef nonnull align 8 dereferenceable(8) %5) #16
  call void @llvm.lifetime.end.p0(i64 8, ptr %5) #16
  ret void

10:                                               ; preds = %2
  %11 = landingpad { ptr, i32 }
          cleanup
  %12 = extractvalue { ptr, i32 } %11, 0
  store ptr %12, ptr %6, align 8
  %13 = extractvalue { ptr, i32 } %11, 1
  store i32 %13, ptr %7, align 4
  call void @_ZN4lean10object_refD2Ev(ptr noundef nonnull align 8 dereferenceable(8) %5) #16
  call void @llvm.lifetime.end.p0(i64 8, ptr %5) #16
  br label %14

14:                                               ; preds = %10
  %15 = load ptr, ptr %6, align 8
  %16 = load i32, ptr %7, align 4
  %17 = insertvalue { ptr, i32 } poison, ptr %15, 0
  %18 = insertvalue { ptr, i32 } %17, i32 %16, 1
  resume { ptr, i32 } %18
}

; Function Attrs: mustprogress uwtable
define hidden void @_ZN4lean13mk_llnf_resetEj(ptr dead_on_unwind noalias writable sret(%"class.lean::expr") align 8 %0, i32 noundef %1) #0 personality ptr @__gxx_personality_v0 {
  %3 = alloca ptr, align 8
  %4 = alloca i32, align 4
  %5 = alloca %"class.lean::name", align 8
  %6 = alloca ptr, align 8
  %7 = alloca i32, align 4
  store ptr %0, ptr %3, align 8
  store i32 %1, ptr %4, align 4, !tbaa !10
  call void @llvm.lifetime.start.p0(i64 8, ptr %5) #16
  %8 = load ptr, ptr @_ZN4leanL7g_resetE, align 8, !tbaa !8
  %9 = load i32, ptr %4, align 4, !tbaa !10
  call void @_ZN4lean4nameC1ERKS0_j(ptr noundef nonnull align 8 dereferenceable(8) %5, ptr noundef nonnull align 8 dereferenceable(8) %8, i32 noundef %9)
  invoke void @_ZN4lean11mk_constantERKNS_4nameE(ptr dead_on_unwind writable sret(%"class.lean::expr") align 8 %0, ptr noundef nonnull align 8 dereferenceable(8) %5)
          to label %10 unwind label %11

10:                                               ; preds = %2
  call void @_ZN4lean10object_refD2Ev(ptr noundef nonnull align 8 dereferenceable(8) %5) #16
  call void @llvm.lifetime.end.p0(i64 8, ptr %5) #16
  ret void

11:                                               ; preds = %2
  %12 = landingpad { ptr, i32 }
          cleanup
  %13 = extractvalue { ptr, i32 } %12, 0
  store ptr %13, ptr %6, align 8
  %14 = extractvalue { ptr, i32 } %12, 1
  store i32 %14, ptr %7, align 4
  call void @_ZN4lean10object_refD2Ev(ptr noundef nonnull align 8 dereferenceable(8) %5) #16
  call void @llvm.lifetime.end.p0(i64 8, ptr %5) #16
  br label %15

15:                                               ; preds = %11
  %16 = load ptr, ptr %6, align 8
  %17 = load i32, ptr %7, align 4
  %18 = insertvalue { ptr, i32 } poison, ptr %16, 0
  %19 = insertvalue { ptr, i32 } %18, i32 %17, 1
  resume { ptr, i32 } %19
}